; Function Attrs: nounwind uwtable
define range(i32 -1, 1) i32 @KINSetNoInitSetup(ptr noundef writeonly captures(address_is_null) %0, i32 noundef %1) local_unnamed_addr #0 {
  %3 = icmp eq ptr %0, null
  br i1 %3, label %4, label %5

4:                                                ; preds = %2
  tail call void (ptr, i32, i32, ptr, ptr, ptr, ...) @KINProcessError(ptr noundef null, i32 noundef -1, i32 noundef 309, ptr noundef nonnull @__func__.KINSetNoInitSetup, ptr noundef nonnull @.str, ptr noundef nonnull @.str.1) #9
  br label %7

5:                                                ; preds = %2
  %6 = getelementptr inbounds nuw i8, ptr %0, i64 192
  store i32 %1, ptr %6, align 8, !tbaa !26
  br label %7

7:                                                ; preds = %5, %4
  %.0 = phi i32 [ -1, %4 ], [ 0, %5 ]
  ret i32 %.0
}